; ModuleID = '60/645.c'
source_filename = "60/645.c"
target datalayout = "e-m:e-p270:32:32-p271:32:32-p272:64:64-i64:64-f80:128-n8:16:32:64-S128"
target triple = "x86_64-pc-linux-gnu"

@.str = private unnamed_addr constant [3 x i8] c"%d\00", align 1
@.str.1 = private unnamed_addr constant [6 x i8] c"empty\00", align 1
@.str.2 = private unnamed_addr constant [7 x i8] c"%d %d\0A\00", align 1

; Function Attrs: noinline nounwind uwtable
define dso_local i32 @main() #0 {
  %1 = alloca i32, align 4
  %2 = alloca i32, align 4
  %3 = alloca i32, align 4
  %4 = alloca i32, align 4
  %5 = alloca i32, align 4
  %6 = alloca i32, align 4
  %7 = alloca i32, align 4
  store i32 0, i32* %1, align 4
  store i32 1, i32* %3, align 4
  store i32 1, i32* %4, align 4
  store i32 1, i32* %5, align 4
  store i32 1, i32* %6, align 4
  store i32 1, i32* %7, align 4
  %8 = call i32 (i8*, ...) @__isoc99_scanf(i8* getelementptr inbounds ([3 x i8], [3 x i8]* @.str, i64 0, i64 0), i32* %3)
  %9 = load i32, i32* %3, align 4
  %10 = icmp sle i32 %9, 4
  br i1 %10, label %11, label %13

11:                                               ; preds = %0
  %12 = call i32 (i8*, ...) @printf(i8* getelementptr inbounds ([6 x i8], [6 x i8]* @.str.1, i64 0, i64 0))
  br label %13

13:                                               ; preds = %11, %0
  %14 = load i32, i32* %3, align 4
  %15 = icmp sge i32 %14, 5
  br i1 %15, label %16, label %64

16:                                               ; preds = %13
  store i32 3, i32* %6, align 4
  store i32 3, i32* %2, align 4
  br label %17

17:                                               ; preds = %60, %16
  %18 = load i32, i32* %2, align 4
  %19 = load i32, i32* %3, align 4
  %20 = icmp sle i32 %18, %19
  br i1 %20, label %21, label %63

21:                                               ; preds = %17
  %22 = load i32, i32* %2, align 4
  %23 = sitofp i32 %22 to double
  %24 = call double @sqrt(double %23) #3
  %25 = fptosi double %24 to i32
  store i32 %25, i32* %4, align 4
  store i32 2, i32* %5, align 4
  br label %26

26:                                               ; preds = %37, %21
  %27 = load i32, i32* %5, align 4
  %28 = load i32, i32* %4, align 4
  %29 = icmp sle i32 %27, %28
  br i1 %29, label %30, label %40

30:                                               ; preds = %26
  %31 = load i32, i32* %2, align 4
  %32 = load i32, i32* %5, align 4
  %33 = srem i32 %31, %32
  %34 = icmp eq i32 %33, 0
  br i1 %34, label %35, label %36

35:                                               ; preds = %30
  br label %40

36:                                               ; preds = %30
  br label %37

37:                                               ; preds = %36
  %38 = load i32, i32* %5, align 4
  %39 = add nsw i32 %38, 1
  store i32 %39, i32* %5, align 4
  br label %26

40:                                               ; preds = %35, %26
  %41 = load i32, i32* %5, align 4
  %42 = load i32, i32* %4, align 4
  %43 = add nsw i32 %42, 1
  %44 = icmp sge i32 %41, %43
  br i1 %44, label %45, label %47

45:                                               ; preds = %40
  %46 = load i32, i32* %2, align 4
  store i32 %46, i32* %7, align 4
  br label %47

47:                                               ; preds = %45, %40
  %48 = load i32, i32* %7, align 4
  %49 = load i32, i32* %6, align 4
  %50 = add nsw i32 %49, 2
  %51 = icmp eq i32 %48, %50
  br i1 %51, label %52, label %57

52:                                               ; preds = %47
  %53 = load i32, i32* %6, align 4
  %54 = load i32, i32* %7, align 4
  %55 = call i32 (i8*, ...) @printf(i8* getelementptr inbounds ([7 x i8], [7 x i8]* @.str.2, i64 0, i64 0), i32 %53, i32 %54)
  %56 = load i32, i32* %7, align 4
  store i32 %56, i32* %6, align 4
  br label %59

57:                                               ; preds = %47
  %58 = load i32, i32* %7, align 4
  store i32 %58, i32* %6, align 4
  br label %59

59:                                               ; preds = %57, %52
  br label %60

60:                                               ; preds = %59
  %61 = load i32, i32* %2, align 4
  %62 = add nsw i32 %61, 2
  store i32 %62, i32* %2, align 4
  br label %17

63:                                               ; preds = %17
  br label %64

64:                                               ; preds = %63, %13
  %65 = load i32, i32* %1, align 4
  ret i32 %65
}

declare dso_local i32 @__isoc99_scanf(i8*, ...) #1

declare dso_local i32 @printf(i8*, ...) #1

; Function Attrs: nounwind
declare dso_local double @sqrt(double) #2


!llvm.module.flags = !{!0}
!llvm.ident = !{!1}

!0 = !{i32 1, !"wchar_size", i32 4}
!1 = !{!"clang version 10.0.0-4ubuntu1 "}
