; ModuleID = 'source-C-CXX/59/645.c'
source_filename = "source-C-CXX/59/645.c"
target datalayout = "e-m:e-p270:32:32-p271:32:32-p272:64:64-i64:64-f80:128-n8:16:32:64-S128"
target triple = "x86_64-pc-linux-gnu"

@.str = private unnamed_addr constant [3 x i8] c"%d\00", align 1
@.str.1 = private unnamed_addr constant [6 x i8] c"empty\00", align 1
@.str.2 = private unnamed_addr constant [7 x i8] c"%d %d\0A\00", align 1

; Function Attrs: nofree nounwind sspstrong uwtable
define dso_local i32 @main() local_unnamed_addr #0 {
  %1 = alloca i32, align 4
  %2 = bitcast i32* %1 to i8*
  call void @llvm.lifetime.start.p0i8(i64 4, i8* nonnull %2) #4
  store i32 1, i32* %1, align 4, !tbaa !5
  %3 = call i32 (i8*, ...) @__isoc99_scanf(i8* getelementptr inbounds ([3 x i8], [3 x i8]* @.str, i64 0, i64 0), i32* nonnull %1)
  %4 = load i32, i32* %1, align 4, !tbaa !5
  %5 = icmp slt i32 %4, 5
  br i1 %5, label %6, label %10

6:                                                ; preds = %0
  %7 = call i32 (i8*, ...) @printf(i8* nonnull dereferenceable(1) getelementptr inbounds ([6 x i8], [6 x i8]* @.str.1, i64 0, i64 0))
  %8 = load i32, i32* %1, align 4, !tbaa !5
  %9 = icmp slt i32 %8, 5
  br i1 %9, label %36, label %10

10:                                               ; preds = %0, %6
  br label %11

11:                                               ; preds = %10, %32
  %12 = phi i32 [ %27, %32 ], [ 1, %10 ]
  %13 = phi i32 [ %27, %32 ], [ 3, %10 ]
  %14 = phi i32 [ %33, %32 ], [ 3, %10 ]
  %15 = sitofp i32 %14 to double
  %16 = call double @sqrt(double %15) #4
  %17 = fptosi double %16 to i32
  %18 = icmp slt i32 %17, 2
  br i1 %18, label %26, label %22

19:                                               ; preds = %22
  %20 = add nuw i32 %23, 1
  %21 = icmp eq i32 %23, %17
  br i1 %21, label %26, label %22, !llvm.loop !9

22:                                               ; preds = %11, %19
  %23 = phi i32 [ %20, %19 ], [ 2, %11 ]
  %24 = urem i32 %14, %23
  %25 = icmp eq i32 %24, 0
  br i1 %25, label %26, label %19

26:                                               ; preds = %19, %22, %11
  %27 = phi i32 [ %14, %11 ], [ %12, %22 ], [ %14, %19 ]
  %28 = add nsw i32 %13, 2
  %29 = icmp eq i32 %27, %28
  br i1 %29, label %30, label %32

30:                                               ; preds = %26
  %31 = call i32 (i8*, ...) @printf(i8* nonnull dereferenceable(1) getelementptr inbounds ([7 x i8], [7 x i8]* @.str.2, i64 0, i64 0), i32 %13, i32 %27)
  br label %32

32:                                               ; preds = %26, %30
  %33 = add nuw nsw i32 %14, 2
  %34 = load i32, i32* %1, align 4, !tbaa !5
  %35 = icmp sgt i32 %33, %34
  br i1 %35, label %36, label %11, !llvm.loop !11

36:                                               ; preds = %32, %6
  call void @llvm.lifetime.end.p0i8(i64 4, i8* nonnull %2) #4
  ret i32 0
}

; Function Attrs: argmemonly mustprogress nofree nosync nounwind willreturn
declare void @llvm.lifetime.start.p0i8(i64 immarg, i8* nocapture) #1

; Function Attrs: nofree nounwind
declare noundef i32 @__isoc99_scanf(i8* nocapture noundef readonly, ...) local_unnamed_addr #2

; Function Attrs: nofree nounwind
declare noundef i32 @printf(i8* nocapture noundef readonly, ...) local_unnamed_addr #2

; Function Attrs: mustprogress nofree nounwind willreturn
declare double @sqrt(double) local_unnamed_addr #3

; Function Attrs: argmemonly mustprogress nofree nosync nounwind willreturn
declare void @llvm.lifetime.end.p0i8(i64 immarg, i8* nocapture) #1


!llvm.module.flags = !{!0, !1, !2, !3}
!llvm.ident = !{!4}

!0 = !{i32 1, !"wchar_size", i32 4}
!1 = !{i32 7, !"PIC Level", i32 2}
!2 = !{i32 7, !"PIE Level", i32 2}
!3 = !{i32 7, !"uwtable", i32 1}
!4 = !{!"clang version 13.0.0"}
!5 = !{!6, !6, i64 0}
!6 = !{!"int", !7, i64 0}
!7 = !{!"omnipotent char", !8, i64 0}
!8 = !{!"Simple C/C++ TBAA"}
!9 = distinct !{!9, !10}
!10 = !{!"llvm.loop.mustprogress"}
!11 = distinct !{!11, !10}
